; Function Attrs: mustprogress nofree nounwind willreturn memory(read) uwtable
define i64 @_ZNK9grpc_core12OrcaProducer20GetMinIntervalLockedEv(ptr noundef nonnull readonly align 8 dereferenceable(112) %this) local_unnamed_addr #6 align 2 {
entry:
  %_M_left.i.i = getelementptr inbounds i8, ptr %this, i64 72
  %0 = load ptr, ptr %_M_left.i.i, align 8
  %add.ptr.i.i = getelementptr inbounds i8, ptr %this, i64 56
  %cmp.i.not7 = icmp eq ptr %0, %add.ptr.i.i
  br i1 %cmp.i.not7, label %for.end, label %for.body

for.body:                                         ; preds = %entry, %for.body
  %retval.sroa.0.09 = phi i64 [ %spec.select, %for.body ], [ 9223372036854775807, %entry ]
  %__begin1.sroa.0.08 = phi ptr [ %call.i, %for.body ], [ %0, %entry ]
  %_M_storage.i.i = getelementptr inbounds i8, ptr %__begin1.sroa.0.08, i64 32
  %1 = load ptr, ptr %_M_storage.i.i, align 8
  %report_interval_.i = getelementptr inbounds i8, ptr %1, i64 8
  %retval.sroa.0.0.copyload.i = load i64, ptr %report_interval_.i, align 8
  %spec.select = tail call i64 @llvm.smin.i64(i64 %retval.sroa.0.0.copyload.i, i64 %retval.sroa.0.09)
  %call.i = tail call noundef ptr @_ZSt18_Rb_tree_incrementPKSt18_Rb_tree_node_base(ptr noundef %__begin1.sroa.0.08) #25
  %cmp.i.not = icmp eq ptr %call.i, %add.ptr.i.i
  br i1 %cmp.i.not, label %for.end, label %for.body

for.end:                                          ; preds = %for.body, %entry
  %retval.sroa.0.0.lcssa = phi i64 [ 9223372036854775807, %entry ], [ %spec.select, %for.body ]
  ret i64 %retval.sroa.0.0.lcssa
}